target datalayout = "e-m:e-p270:32:32-p271:32:32-p272:64:64-i64:64-i128:128-f80:128-n8:16:32:64-S128"
target triple = "x86_64-pc-linux-gnu"

%"class.ncnn::Option" = type { i8, i32, ptr, ptr, i32, i8, i8, i8, i8, i8, i8, i8, i8, i8, i8, i8, i8, i8, i8, i8, i8, i8, i8, i8, i8, i32, i8, i8, i8, i8, i8, i8, i8, i8, i8, i8, i8, i8 }

; Function Attrs: mustprogress uwtable
define hidden void @ncnn_copy_cut_border_3d(ptr noundef %0, ptr noundef %1, i32 noundef %2, i32 noundef %3, i32 noundef %4, i32 noundef %5, i32 noundef %6, i32 noundef %7, ptr noundef %8) #1 {
  %10 = alloca ptr, align 8
  %11 = alloca ptr, align 8
  %12 = alloca i32, align 4
  %13 = alloca i32, align 4
  %14 = alloca i32, align 4
  %15 = alloca i32, align 4
  %16 = alloca i32, align 4
  %17 = alloca i32, align 4
  %18 = alloca ptr, align 8
  %19 = alloca %"class.ncnn::Option", align 8
  store ptr %0, ptr %10, align 8
  store ptr %1, ptr %11, align 8
  store i32 %2, ptr %12, align 4
  store i32 %3, ptr %13, align 4
  store i32 %4, ptr %14, align 4
  store i32 %5, ptr %15, align 4
  store i32 %6, ptr %16, align 4
  store i32 %7, ptr %17, align 4
  store ptr %8, ptr %18, align 8
  %20 = load ptr, ptr %18, align 8
  %21 = icmp ne ptr %20, null
  br i1 %21, label %22, label %24

22:                                               ; preds = %9
  %23 = load ptr, ptr %18, align 8
  call void @llvm.memcpy.p0.p0.i64(ptr align 8 %19, ptr align 8 %23, i64 64, i1 false)
  br label %25

24:                                               ; preds = %9
  call void @_ZN4ncnn6OptionC1Ev(ptr noundef nonnull align 8 dereferenceable(64) %19)
  br label %25

25:                                               ; preds = %24, %22
  %26 = load ptr, ptr %10, align 8
  %27 = load ptr, ptr %11, align 8
  %28 = load i32, ptr %12, align 4
  %29 = load i32, ptr %13, align 4
  %30 = load i32, ptr %14, align 4
  %31 = load i32, ptr %15, align 4
  %32 = load i32, ptr %16, align 4
  %33 = load i32, ptr %17, align 4
  call void @_ZN4ncnn18copy_cut_border_3dERKNS_3MatERS0_iiiiiiRKNS_6OptionE(ptr noundef nonnull align 8 dereferenceable(72) %26, ptr noundef nonnull align 8 dereferenceable(72) %27, i32 noundef %28, i32 noundef %29, i32 noundef %30, i32 noundef %31, i32 noundef %32, i32 noundef %33, ptr noundef nonnull align 8 dereferenceable(64) %19)
  ret void
}